; Function Attrs: nounwind uwtable
define void @reverseAppend(ptr noundef captures(none) %0, ptr noundef captures(none) %1) local_unnamed_addr #0 {
  %3 = getelementptr i8, ptr %1, i64 16
  %.val15.i = load i64, ptr %3, align 8, !tbaa !3
  %4 = lshr i64 %.val15.i, 1
  %.not.i = icmp ult i64 %.val15.i, 2
  br i1 %.not.i, label %nodelist_reverse.exit, label %.lr.ph.i

.lr.ph.i:                                         ; preds = %2
  %5 = load ptr, ptr %1, align 8, !tbaa !12
  %6 = getelementptr inbounds nuw i8, ptr %1, i64 8
  %7 = load i64, ptr %6, align 8, !tbaa !11
  %8 = getelementptr inbounds nuw i8, ptr %1, i64 24
  %9 = load i64, ptr %8, align 8, !tbaa !10
  %invariant.op.i = add i64 %7, %.val15.i
  br label %10

10:                                               ; preds = %10, %.lr.ph.i
  %.016.i = phi i64 [ 0, %.lr.ph.i ], [ %19, %10 ]
  %11 = add i64 %.016.i, %7
  %12 = urem i64 %11, %9
  %13 = getelementptr inbounds nuw ptr, ptr %5, i64 %12
  %14 = load ptr, ptr %13, align 8, !tbaa !15
  %15 = xor i64 %.016.i, -1
  %.reass.i = add i64 %invariant.op.i, %15
  %16 = urem i64 %.reass.i, %9
  %17 = getelementptr inbounds nuw ptr, ptr %5, i64 %16
  %18 = load ptr, ptr %17, align 8, !tbaa !15
  store ptr %18, ptr %13, align 8, !tbaa !15
  store ptr %14, ptr %17, align 8, !tbaa !15
  %19 = add nuw nsw i64 %.016.i, 1
  %exitcond.not.i = icmp eq i64 %19, %4
  br i1 %exitcond.not.i, label %nodelist_reverse.exit, label %10, !llvm.loop !24

nodelist_reverse.exit:                            ; preds = %10, %2
  %.not.i4 = icmp eq i64 %.val15.i, 0
  br i1 %.not.i4, label %concatNodelist.exit, label %.lr.ph.i5

.lr.ph.i5:                                        ; preds = %nodelist_reverse.exit
  %20 = getelementptr inbounds nuw i8, ptr %1, i64 8
  %21 = getelementptr inbounds nuw i8, ptr %1, i64 24
  %22 = getelementptr inbounds nuw i8, ptr %0, i64 16
  %23 = getelementptr inbounds nuw i8, ptr %0, i64 24
  %.phi.trans.insert.i.i.i = getelementptr inbounds nuw i8, ptr %0, i64 8
  %.pre.i = load i64, ptr %22, align 8, !tbaa !3
  %.pre7.i = load i64, ptr %23, align 8, !tbaa !10
  br label %24

24:                                               ; preds = %nodelist_append.exit.i, %.lr.ph.i5
  %25 = phi i64 [ %.pre7.i, %.lr.ph.i5 ], [ %64, %nodelist_append.exit.i ]
  %26 = phi i64 [ %.pre.i, %.lr.ph.i5 ], [ %71, %nodelist_append.exit.i ]
  %.06.i = phi i64 [ 0, %.lr.ph.i5 ], [ %72, %nodelist_append.exit.i ]
  %27 = load ptr, ptr %1, align 8, !tbaa !12
  %28 = load i64, ptr %20, align 8, !tbaa !11
  %29 = add i64 %28, %.06.i
  %30 = load i64, ptr %21, align 8, !tbaa !10
  %31 = urem i64 %29, %30
  %32 = getelementptr inbounds nuw ptr, ptr %27, i64 %31
  %33 = load ptr, ptr %32, align 8, !tbaa !15
  %34 = icmp eq i64 %26, %25
  br i1 %34, label %35, label %._crit_edge.i.i.i

._crit_edge.i.i.i:                                ; preds = %24
  %.pre.i.i.i = load i64, ptr %.phi.trans.insert.i.i.i, align 8, !tbaa !11
  %.pre46.i.i.i = load ptr, ptr %0, align 8, !tbaa !12
  br label %nodelist_append.exit.i

35:                                               ; preds = %24
  %36 = icmp eq i64 %25, 0
  %37 = shl i64 %25, 1
  %spec.select.i.i.i = select i1 %36, i64 1, i64 %37
  %mul.ov.i.i.i = icmp ugt i64 %spec.select.i.i.i, 2305843009213693951
  br i1 %mul.ov.i.i.i, label %60, label %38

38:                                               ; preds = %35
  %39 = load ptr, ptr %0, align 8, !tbaa !12
  %40 = shl nuw i64 %spec.select.i.i.i, 3
  %41 = tail call ptr @realloc(ptr noundef %39, i64 noundef %40) #11
  %42 = icmp eq ptr %41, null
  br i1 %42, label %60, label %43

43:                                               ; preds = %38
  %44 = load i64, ptr %23, align 8, !tbaa !10
  %45 = getelementptr inbounds nuw ptr, ptr %41, i64 %44
  %46 = sub i64 %spec.select.i.i.i, %44
  %47 = shl i64 %46, 3
  tail call void @llvm.memset.p0.i64(ptr nonnull align 8 %45, i8 0, i64 %47, i1 false)
  %48 = load i64, ptr %.phi.trans.insert.i.i.i, align 8, !tbaa !11
  %49 = load i64, ptr %22, align 8, !tbaa !3
  %50 = add i64 %49, %48
  %51 = icmp ugt i64 %50, %44
  br i1 %51, label %52, label %58

52:                                               ; preds = %43
  %53 = sub i64 %44, %48
  %54 = sub i64 %spec.select.i.i.i, %53
  %55 = getelementptr inbounds nuw ptr, ptr %41, i64 %54
  %56 = getelementptr inbounds nuw ptr, ptr %41, i64 %48
  %57 = shl i64 %53, 3
  tail call void @llvm.memmove.p0.p0.i64(ptr nonnull align 8 %55, ptr nonnull align 8 %56, i64 %57, i1 false)
  store i64 %54, ptr %.phi.trans.insert.i.i.i, align 8, !tbaa !11
  br label %58

58:                                               ; preds = %52, %43
  %59 = phi i64 [ %48, %43 ], [ %54, %52 ]
  store ptr %41, ptr %0, align 8, !tbaa !12
  store i64 %spec.select.i.i.i, ptr %23, align 8, !tbaa !10
  br label %nodelist_append.exit.i

60:                                               ; preds = %38, %35
  %.2.i.ph.i.i = phi i32 [ 34, %35 ], [ 12, %38 ]
  %61 = load ptr, ptr @stderr, align 8, !tbaa !13
  %62 = tail call ptr @strerror(i32 noundef %.2.i.ph.i.i) #12
  %63 = tail call i32 (ptr, ptr, ...) @fprintf(ptr noundef %61, ptr noundef nonnull @.str, ptr noundef %62) #13
  tail call fastcc void @graphviz_exit() #14
  unreachable

nodelist_append.exit.i:                           ; preds = %58, %._crit_edge.i.i.i
  %64 = phi i64 [ %25, %._crit_edge.i.i.i ], [ %spec.select.i.i.i, %58 ]
  %65 = phi ptr [ %.pre46.i.i.i, %._crit_edge.i.i.i ], [ %41, %58 ]
  %66 = phi i64 [ %26, %._crit_edge.i.i.i ], [ %49, %58 ]
  %67 = phi i64 [ %.pre.i.i.i, %._crit_edge.i.i.i ], [ %59, %58 ]
  %68 = add i64 %67, %66
  %69 = urem i64 %68, %64
  %70 = getelementptr inbounds nuw ptr, ptr %65, i64 %69
  store ptr %33, ptr %70, align 8, !tbaa !15
  %71 = add i64 %66, 1
  store i64 %71, ptr %22, align 8, !tbaa !3
  %72 = add nuw i64 %.06.i, 1
  %.val.i = load i64, ptr %3, align 8, !tbaa !3
  %73 = icmp ult i64 %72, %.val.i
  br i1 %73, label %24, label %concatNodelist.exit, !llvm.loop !25

concatNodelist.exit:                              ; preds = %nodelist_append.exit.i, %nodelist_reverse.exit
  %74 = getelementptr inbounds nuw i8, ptr %1, i64 8
  tail call void @llvm.memset.p0.i64(ptr noundef nonnull align 8 dereferenceable(16) %74, i8 0, i64 16, i1 false)
  %75 = load ptr, ptr %1, align 8, !tbaa !12
  tail call void @free(ptr noundef %75) #12
  tail call void @llvm.memset.p0.i64(ptr noundef nonnull align 8 dereferenceable(32) %1, i8 0, i64 32, i1 false)
  ret void
}